target datalayout = "e-m:e-p270:32:32-p271:32:32-p272:64:64-i64:64-i128:128-f80:128-n8:16:32:64-S128"
target triple = "x86_64-pc-linux-gnu"

%struct.evp_cipher_ctx_st = type { ptr, ptr, i32, i32, [16 x i8], [16 x i8], [32 x i8], i32, ptr, i32, i32, i64, ptr, i32, i32, [32 x i8], i64, ptr, ptr }

; Function Attrs: nounwind uwtable
define internal i32 @rc2_meth_to_magic(ptr noundef %0) #0 {
  %2 = alloca i32, align 4
  %3 = alloca ptr, align 8
  %4 = alloca i32, align 4
  %5 = alloca i32, align 4
  store ptr %0, ptr %3, align 8, !tbaa !3
  call void @llvm.lifetime.start.p0(i64 4, ptr %4) #4
  %6 = load ptr, ptr %3, align 8, !tbaa !3
  %7 = call i32 @EVP_CIPHER_CTX_ctrl(ptr noundef %6, i32 noundef 2, i32 noundef 0, ptr noundef %4)
  %8 = icmp sle i32 %7, 0
  br i1 %8, label %9, label %10

9:                                                ; preds = %1
  store i32 0, ptr %2, align 4
  store i32 1, ptr %5, align 4
  br label %23

10:                                               ; preds = %1
  %11 = load i32, ptr %4, align 4, !tbaa !10
  %12 = icmp eq i32 %11, 128
  br i1 %12, label %13, label %14

13:                                               ; preds = %10
  store i32 58, ptr %2, align 4
  store i32 1, ptr %5, align 4
  br label %23

14:                                               ; preds = %10
  %15 = load i32, ptr %4, align 4, !tbaa !10
  %16 = icmp eq i32 %15, 64
  br i1 %16, label %17, label %18

17:                                               ; preds = %14
  store i32 120, ptr %2, align 4
  store i32 1, ptr %5, align 4
  br label %23

18:                                               ; preds = %14
  %19 = load i32, ptr %4, align 4, !tbaa !10
  %20 = icmp eq i32 %19, 40
  br i1 %20, label %21, label %22

21:                                               ; preds = %18
  store i32 160, ptr %2, align 4
  store i32 1, ptr %5, align 4
  br label %23

22:                                               ; preds = %18
  store i32 0, ptr %2, align 4
  store i32 1, ptr %5, align 4
  br label %23

23:                                               ; preds = %22, %21, %17, %13, %9
  call void @llvm.lifetime.end.p0(i64 4, ptr %4) #4
  %24 = load i32, ptr %2, align 4
  ret i32 %24
}

; Function Attrs: nounwind uwtable
define internal i32 @rc2_set_asn1_type_and_iv(ptr noundef %0, ptr noundef %1) #0 {
  %3 = alloca ptr, align 8
  %4 = alloca ptr, align 8
  %5 = alloca i64, align 8
  %6 = alloca i32, align 4
  %7 = alloca i32, align 4
  store ptr %0, ptr %3, align 8, !tbaa !3
  store ptr %1, ptr %4, align 8, !tbaa !19
  call void @llvm.lifetime.start.p0(i64 8, ptr %5) #4
  call void @llvm.lifetime.start.p0(i64 4, ptr %6) #4
  store i32 0, ptr %6, align 4, !tbaa !10
  call void @llvm.lifetime.start.p0(i64 4, ptr %7) #4
  %8 = load ptr, ptr %4, align 8, !tbaa !19
  %9 = icmp ne ptr %8, null
  br i1 %9, label %10, label %23

10:                                               ; preds = %2
  %11 = load ptr, ptr %3, align 8, !tbaa !3
  %12 = call i32 @rc2_meth_to_magic(ptr noundef %11)
  %13 = sext i32 %12 to i64
  store i64 %13, ptr %5, align 8, !tbaa !15
  %14 = load ptr, ptr %3, align 8, !tbaa !3
  %15 = call i32 @EVP_CIPHER_CTX_get_iv_length(ptr noundef %14)
  store i32 %15, ptr %7, align 4, !tbaa !10
  %16 = load ptr, ptr %4, align 8, !tbaa !19
  %17 = load i64, ptr %5, align 8, !tbaa !15
  %18 = load ptr, ptr %3, align 8, !tbaa !3
  %19 = getelementptr inbounds nuw %struct.evp_cipher_ctx_st, ptr %18, i32 0, i32 4
  %20 = getelementptr inbounds [16 x i8], ptr %19, i64 0, i64 0
  %21 = load i32, ptr %7, align 4, !tbaa !10
  %22 = call i32 @ASN1_TYPE_set_int_octetstring(ptr noundef %16, i64 noundef %17, ptr noundef %20, i32 noundef %21)
  store i32 %22, ptr %6, align 4, !tbaa !10
  br label %23

23:                                               ; preds = %10, %2
  %24 = load i32, ptr %6, align 4, !tbaa !10
  call void @llvm.lifetime.end.p0(i64 4, ptr %7) #4
  call void @llvm.lifetime.end.p0(i64 4, ptr %6) #4
  call void @llvm.lifetime.end.p0(i64 8, ptr %5) #4
  ret i32 %24
}