; Function Attrs: nounwind uwtable
define internal i32 @rc2_set_asn1_type_and_iv(ptr noundef %0, ptr noundef %1) #1 {
  %3 = alloca i32, align 4
  %.not = icmp eq ptr %1, null
  br i1 %.not, label %15, label %4

4:                                                ; preds = %2
  call void @llvm.lifetime.start.p0(i64 4, ptr nonnull %3) #6
  %5 = call i32 @EVP_CIPHER_CTX_ctrl(ptr noundef %0, i32 noundef 2, i32 noundef 0, ptr noundef nonnull %3) #6
  %6 = icmp slt i32 %5, 1
  br i1 %6, label %rc2_meth_to_magic.exit, label %7

7:                                                ; preds = %4
  %8 = load i32, ptr %3, align 4, !tbaa !11
  switch i32 %8, label %11 [
    i32 128, label %rc2_meth_to_magic.exit
    i32 64, label %9
    i32 40, label %10
  ]

9:                                                ; preds = %7
  br label %rc2_meth_to_magic.exit

10:                                               ; preds = %7
  br label %rc2_meth_to_magic.exit

11:                                               ; preds = %7
  br label %rc2_meth_to_magic.exit

rc2_meth_to_magic.exit:                           ; preds = %4, %7, %9, %10, %11
  %.0.i = phi i64 [ 120, %9 ], [ 160, %10 ], [ 0, %11 ], [ 0, %4 ], [ 58, %7 ]
  call void @llvm.lifetime.end.p0(i64 4, ptr nonnull %3) #6
  %12 = call i32 @EVP_CIPHER_CTX_get_iv_length(ptr noundef %0) #6
  %13 = getelementptr inbounds nuw i8, ptr %0, i64 24
  %14 = call i32 @ASN1_TYPE_set_int_octetstring(ptr noundef nonnull %1, i64 noundef %.0.i, ptr noundef nonnull %13, i32 noundef %12) #6
  br label %15

15:                                               ; preds = %rc2_meth_to_magic.exit, %2
  %.0 = phi i32 [ %14, %rc2_meth_to_magic.exit ], [ 0, %2 ]
  ret i32 %.0
}